(dp0
S'S3E_ANDROID'
p1
NsS'I3D_OS_LINUX'
p2
NsS'IW_TRACE_CHANNEL_GOOGLEPLAYGAMES'
p3
S'1'
p4
sS'IW_PLATFORM_LINUX'
p5
NsS'IW_MKF_S3EGOOGLEPLAYGAMES_BUILD'
p6
NsS'IW_USE_ASSERTIONS'
p7
NsS'IW_USE_TRACING'
p8
NsS'IW_ASSERTION_CHANNEL_GOOGLEPLAYGAMES'
p9
g4
sS'S3E_BUILD_EXT'
p10
NsS'IW_TRACE_CHANNEL_GOOGLEPLAYGAMES_VERBOSE'
p11
S'2'
p12
sS'S3E_EXT_GOOGLEPLAYGAMES'
p13
NsS'IW_MKF_EDK'
p14
NsS'I3D_PLATFORM_LINUX'
p15
NsS'IW_DEBUG'
p16
NsS'ANDROID'
p17
NsS'I3D_ARCH_ARM'
p18
Ns.