	.arch armv5te
	.eabi_attribute 27, 3
	.fpu vfp
	.eabi_attribute 20, 1
	.eabi_attribute 21, 1
	.eabi_attribute 23, 3
	.eabi_attribute 24, 1
	.eabi_attribute 25, 1
	.eabi_attribute 26, 2
	.eabi_attribute 30, 6
	.eabi_attribute 18, 4
	.file	"s3eGooglePlayGames.cpp"
	.text
.Ltext0:
	.section	.text._Z22s3eGooglePlayGamesInitv,"ax",%progbits
	.align	2
	.global	_Z22s3eGooglePlayGamesInitv
	.hidden	_Z22s3eGooglePlayGamesInitv
	.type	_Z22s3eGooglePlayGamesInitv, %function
_Z22s3eGooglePlayGamesInitv:
.LFB33:
	.file 1 "C:\\Users\\ahorvath\\Documents\\GitHub\\s3eGooglePlayGames\\source\\generic\\s3eGooglePlayGames.cpp"
	.loc 1 15 0
	@ args = 0, pretend = 0, frame = 0
	@ frame_needed = 0, uses_anonymous_args = 0
	stmfd	sp!, {r4, lr}
.LCFI0:
	.loc 1 17 0
	bl	_Z31s3eGooglePlayGamesInit_platformv(PLT)
	mov	r3, r0
	.loc 1 18 0
	mov	r0, r3
	ldmfd	sp!, {r4, pc}
.LFE33:
	.size	_Z22s3eGooglePlayGamesInitv, .-_Z22s3eGooglePlayGamesInitv
	.section	.text._Z27s3eGooglePlayGamesTerminatev,"ax",%progbits
	.align	2
	.global	_Z27s3eGooglePlayGamesTerminatev
	.hidden	_Z27s3eGooglePlayGamesTerminatev
	.type	_Z27s3eGooglePlayGamesTerminatev, %function
_Z27s3eGooglePlayGamesTerminatev:
.LFB34:
	.loc 1 21 0
	@ args = 0, pretend = 0, frame = 0
	@ frame_needed = 0, uses_anonymous_args = 0
	stmfd	sp!, {r4, lr}
.LCFI1:
	.loc 1 23 0
	bl	_Z36s3eGooglePlayGamesTerminate_platformv(PLT)
	.loc 1 24 0
	ldmfd	sp!, {r4, pc}
.LFE34:
	.size	_Z27s3eGooglePlayGamesTerminatev, .-_Z27s3eGooglePlayGamesTerminatev
	.section	.text.s3eGPGInitialize,"ax",%progbits
	.align	2
	.global	s3eGPGInitialize
	.hidden	s3eGPGInitialize
	.type	s3eGPGInitialize, %function
s3eGPGInitialize:
.LFB35:
	.loc 1 27 0
	@ args = 0, pretend = 0, frame = 0
	@ frame_needed = 0, uses_anonymous_args = 0
	stmfd	sp!, {r4, lr}
.LCFI2:
	.loc 1 28 0
	bl	_Z25s3eGPGInitialize_platformv(PLT)
	mov	r3, r0
	.loc 1 29 0
	mov	r0, r3
	ldmfd	sp!, {r4, pc}
.LFE35:
	.size	s3eGPGInitialize, .-s3eGPGInitialize
	.section	.text.s3eGPGDeInitialize,"ax",%progbits
	.align	2
	.global	s3eGPGDeInitialize
	.hidden	s3eGPGDeInitialize
	.type	s3eGPGDeInitialize, %function
s3eGPGDeInitialize:
.LFB36:
	.loc 1 32 0
	@ args = 0, pretend = 0, frame = 0
	@ frame_needed = 0, uses_anonymous_args = 0
	stmfd	sp!, {r4, lr}
.LCFI3:
	.loc 1 33 0
	bl	_Z27s3eGPGDeInitialize_platformv(PLT)
	.loc 1 34 0
	ldmfd	sp!, {r4, pc}
.LFE36:
	.size	s3eGPGDeInitialize, .-s3eGPGDeInitialize
	.section	.text.s3eGPGRegisterCallback,"ax",%progbits
	.align	2
	.global	s3eGPGRegisterCallback
	.hidden	s3eGPGRegisterCallback
	.type	s3eGPGRegisterCallback, %function
s3eGPGRegisterCallback:
.LFB37:
	.loc 1 37 0
	@ args = 0, pretend = 0, frame = 16
	@ frame_needed = 0, uses_anonymous_args = 0
	str	lr, [sp, #-4]!
.LCFI4:
	sub	sp, sp, #20
.LCFI5:
	str	r0, [sp, #12]
	str	r1, [sp, #8]
	str	r2, [sp, #4]
	.loc 1 38 0
	ldr	r0, [sp, #12]
	ldr	r1, [sp, #8]
	ldr	r2, [sp, #4]
	bl	_Z31s3eGPGRegisterCallback_platform18s3eGPGCallbackTypePFiPvS0_ES0_(PLT)
	.loc 1 39 0
	add	sp, sp, #20
	ldmfd	sp!, {pc}
.LFE37:
	.size	s3eGPGRegisterCallback, .-s3eGPGRegisterCallback
	.section	.text.s3eGPGUnRegisterCallback,"ax",%progbits
	.align	2
	.global	s3eGPGUnRegisterCallback
	.hidden	s3eGPGUnRegisterCallback
	.type	s3eGPGUnRegisterCallback, %function
s3eGPGUnRegisterCallback:
.LFB38:
	.loc 1 42 0
	@ args = 0, pretend = 0, frame = 8
	@ frame_needed = 0, uses_anonymous_args = 0
	str	lr, [sp, #-4]!
.LCFI6:
	sub	sp, sp, #12
.LCFI7:
	str	r0, [sp, #4]
	str	r1, [sp, #0]
	.loc 1 43 0
	ldr	r0, [sp, #4]
	ldr	r1, [sp, #0]
	bl	_Z33s3eGPGUnRegisterCallback_platform18s3eGPGCallbackTypePFiPvS0_E(PLT)
	.loc 1 44 0
	add	sp, sp, #12
	ldmfd	sp!, {pc}
.LFE38:
	.size	s3eGPGUnRegisterCallback, .-s3eGPGUnRegisterCallback
	.section	.text.s3eGPGUnlockAchievement,"ax",%progbits
	.align	2
	.global	s3eGPGUnlockAchievement
	.hidden	s3eGPGUnlockAchievement
	.type	s3eGPGUnlockAchievement, %function
s3eGPGUnlockAchievement:
.LFB39:
	.loc 1 47 0
	@ args = 0, pretend = 0, frame = 8
	@ frame_needed = 0, uses_anonymous_args = 0
	str	lr, [sp, #-4]!
.LCFI8:
	sub	sp, sp, #12
.LCFI9:
	str	r0, [sp, #4]
	.loc 1 48 0
	ldr	r0, [sp, #4]
	bl	_Z32s3eGPGUnlockAchievement_platformPKc(PLT)
	.loc 1 49 0
	add	sp, sp, #12
	ldmfd	sp!, {pc}
.LFE39:
	.size	s3eGPGUnlockAchievement, .-s3eGPGUnlockAchievement
	.section	.text.s3eGPGUnlockIncrementalAchievement,"ax",%progbits
	.align	2
	.global	s3eGPGUnlockIncrementalAchievement
	.hidden	s3eGPGUnlockIncrementalAchievement
	.type	s3eGPGUnlockIncrementalAchievement, %function
s3eGPGUnlockIncrementalAchievement:
.LFB40:
	.loc 1 52 0
	@ args = 0, pretend = 0, frame = 8
	@ frame_needed = 0, uses_anonymous_args = 0
	str	lr, [sp, #-4]!
.LCFI10:
	sub	sp, sp, #12
.LCFI11:
	str	r0, [sp, #4]
	str	r1, [sp, #0]
	.loc 1 53 0
	ldr	r0, [sp, #4]
	ldr	r1, [sp, #0]
	bl	_Z43s3eGPGUnlockIncrementalAchievement_platformPKci(PLT)
	.loc 1 54 0
	add	sp, sp, #12
	ldmfd	sp!, {pc}
.LFE40:
	.size	s3eGPGUnlockIncrementalAchievement, .-s3eGPGUnlockIncrementalAchievement
	.section	.text.s3eGPGShowAchievementsUI,"ax",%progbits
	.align	2
	.global	s3eGPGShowAchievementsUI
	.hidden	s3eGPGShowAchievementsUI
	.type	s3eGPGShowAchievementsUI, %function
s3eGPGShowAchievementsUI:
.LFB41:
	.loc 1 57 0
	@ args = 0, pretend = 0, frame = 0
	@ frame_needed = 0, uses_anonymous_args = 0
	stmfd	sp!, {r4, lr}
.LCFI12:
	.loc 1 58 0
	bl	_Z33s3eGPGShowAchievementsUI_platformv(PLT)
	.loc 1 59 0
	ldmfd	sp!, {r4, pc}
.LFE41:
	.size	s3eGPGShowAchievementsUI, .-s3eGPGShowAchievementsUI
	.section	.text.s3eGPGSubmitLeaderboardScore,"ax",%progbits
	.align	2
	.global	s3eGPGSubmitLeaderboardScore
	.hidden	s3eGPGSubmitLeaderboardScore
	.type	s3eGPGSubmitLeaderboardScore, %function
s3eGPGSubmitLeaderboardScore:
.LFB42:
	.loc 1 62 0
	@ args = 0, pretend = 0, frame = 8
	@ frame_needed = 0, uses_anonymous_args = 0
	str	lr, [sp, #-4]!
.LCFI13:
	sub	sp, sp, #12
.LCFI14:
	str	r0, [sp, #4]
	str	r1, [sp, #0]
	.loc 1 63 0
	ldr	r0, [sp, #4]
	ldr	r1, [sp, #0]
	bl	_Z37s3eGPGSubmitLeaderboardScore_platformPKci(PLT)
	.loc 1 64 0
	add	sp, sp, #12
	ldmfd	sp!, {pc}
.LFE42:
	.size	s3eGPGSubmitLeaderboardScore, .-s3eGPGSubmitLeaderboardScore
	.section	.text.s3eGPGShowLeaderboardUI,"ax",%progbits
	.align	2
	.global	s3eGPGShowLeaderboardUI
	.hidden	s3eGPGShowLeaderboardUI
	.type	s3eGPGShowLeaderboardUI, %function
s3eGPGShowLeaderboardUI:
.LFB43:
	.loc 1 67 0
	@ args = 0, pretend = 0, frame = 8
	@ frame_needed = 0, uses_anonymous_args = 0
	str	lr, [sp, #-4]!
.LCFI15:
	sub	sp, sp, #12
.LCFI16:
	str	r0, [sp, #4]
	.loc 1 68 0
	ldr	r0, [sp, #4]
	bl	_Z32s3eGPGShowLeaderboardUI_platformPKc(PLT)
	.loc 1 69 0
	add	sp, sp, #12
	ldmfd	sp!, {pc}
.LFE43:
	.size	s3eGPGShowLeaderboardUI, .-s3eGPGShowLeaderboardUI
	.section	.text.s3eGPGIsSignedIn,"ax",%progbits
	.align	2
	.global	s3eGPGIsSignedIn
	.hidden	s3eGPGIsSignedIn
	.type	s3eGPGIsSignedIn, %function
s3eGPGIsSignedIn:
.LFB44:
	.loc 1 72 0
	@ args = 0, pretend = 0, frame = 0
	@ frame_needed = 0, uses_anonymous_args = 0
	stmfd	sp!, {r4, lr}
.LCFI17:
	.loc 1 73 0
	bl	_Z25s3eGPGIsSignedIn_platformv(PLT)
	mov	r3, r0
	.loc 1 74 0
	mov	r0, r3
	ldmfd	sp!, {r4, pc}
.LFE44:
	.size	s3eGPGIsSignedIn, .-s3eGPGIsSignedIn
	.section	.text.s3eGPGShowAllLeaderBoardsUI,"ax",%progbits
	.align	2
	.global	s3eGPGShowAllLeaderBoardsUI
	.hidden	s3eGPGShowAllLeaderBoardsUI
	.type	s3eGPGShowAllLeaderBoardsUI, %function
s3eGPGShowAllLeaderBoardsUI:
.LFB45:
	.loc 1 77 0
	@ args = 0, pretend = 0, frame = 0
	@ frame_needed = 0, uses_anonymous_args = 0
	stmfd	sp!, {r4, lr}
.LCFI18:
	.loc 1 78 0
	bl	_Z36s3eGPGShowAllLeaderBoardsUI_platformv(PLT)
	.loc 1 79 0
	ldmfd	sp!, {r4, pc}
.LFE45:
	.size	s3eGPGShowAllLeaderBoardsUI, .-s3eGPGShowAllLeaderBoardsUI
	.section	.debug_frame,"",%progbits
.Lframe0:
	.4byte	.LECIE0-.LSCIE0
.LSCIE0:
	.4byte	0xffffffff
	.byte	0x1
	.ascii	"\000"
	.uleb128 0x1
	.sleb128 -4
	.byte	0xe
	.byte	0xc
	.uleb128 0xd
	.uleb128 0x0
	.align	2
.LECIE0:
.LSFDE0:
	.4byte	.LEFDE0-.LASFDE0
.LASFDE0:
	.4byte	.Lframe0
	.4byte	.LFB33
	.4byte	.LFE33-.LFB33
	.byte	0x4
	.4byte	.LCFI0-.LFB33
	.byte	0xe
	.uleb128 0x8
	.byte	0x11
	.uleb128 0xe
	.sleb128 1
	.byte	0x11
	.uleb128 0x4
	.sleb128 2
	.align	2
.LEFDE0:
.LSFDE2:
	.4byte	.LEFDE2-.LASFDE2
.LASFDE2:
	.4byte	.Lframe0
	.4byte	.LFB34
	.4byte	.LFE34-.LFB34
	.byte	0x4
	.4byte	.LCFI1-.LFB34
	.byte	0xe
	.uleb128 0x8
	.byte	0x11
	.uleb128 0xe
	.sleb128 1
	.byte	0x11
	.uleb128 0x4
	.sleb128 2
	.align	2
.LEFDE2:
.LSFDE4:
	.4byte	.LEFDE4-.LASFDE4
.LASFDE4:
	.4byte	.Lframe0
	.4byte	.LFB35
	.4byte	.LFE35-.LFB35
	.byte	0x4
	.4byte	.LCFI2-.LFB35
	.byte	0xe
	.uleb128 0x8
	.byte	0x11
	.uleb128 0xe
	.sleb128 1
	.byte	0x11
	.uleb128 0x4
	.sleb128 2
	.align	2
.LEFDE4:
.LSFDE6:
	.4byte	.LEFDE6-.LASFDE6
.LASFDE6:
	.4byte	.Lframe0
	.4byte	.LFB36
	.4byte	.LFE36-.LFB36
	.byte	0x4
	.4byte	.LCFI3-.LFB36
	.byte	0xe
	.uleb128 0x8
	.byte	0x11
	.uleb128 0xe
	.sleb128 1
	.byte	0x11
	.uleb128 0x4
	.sleb128 2
	.align	2
.LEFDE6:
.LSFDE8:
	.4byte	.LEFDE8-.LASFDE8
.LASFDE8:
	.4byte	.Lframe0
	.4byte	.LFB37
	.4byte	.LFE37-.LFB37
	.byte	0x4
	.4byte	.LCFI4-.LFB37
	.byte	0xe
	.uleb128 0x4
	.byte	0x4
	.4byte	.LCFI5-.LCFI4
	.byte	0xe
	.uleb128 0x18
	.byte	0x11
	.uleb128 0xe
	.sleb128 1
	.align	2
.LEFDE8:
.LSFDE10:
	.4byte	.LEFDE10-.LASFDE10
.LASFDE10:
	.4byte	.Lframe0
	.4byte	.LFB38
	.4byte	.LFE38-.LFB38
	.byte	0x4
	.4byte	.LCFI6-.LFB38
	.byte	0xe
	.uleb128 0x4
	.byte	0x4
	.4byte	.LCFI7-.LCFI6
	.byte	0xe
	.uleb128 0x10
	.byte	0x11
	.uleb128 0xe
	.sleb128 1
	.align	2
.LEFDE10:
.LSFDE12:
	.4byte	.LEFDE12-.LASFDE12
.LASFDE12:
	.4byte	.Lframe0
	.4byte	.LFB39
	.4byte	.LFE39-.LFB39
	.byte	0x4
	.4byte	.LCFI8-.LFB39
	.byte	0xe
	.uleb128 0x4
	.byte	0x4
	.4byte	.LCFI9-.LCFI8
	.byte	0xe
	.uleb128 0x10
	.byte	0x11
	.uleb128 0xe
	.sleb128 1
	.align	2
.LEFDE12:
.LSFDE14:
	.4byte	.LEFDE14-.LASFDE14
.LASFDE14:
	.4byte	.Lframe0
	.4byte	.LFB40
	.4byte	.LFE40-.LFB40
	.byte	0x4
	.4byte	.LCFI10-.LFB40
	.byte	0xe
	.uleb128 0x4
	.byte	0x4
	.4byte	.LCFI11-.LCFI10
	.byte	0xe
	.uleb128 0x10
	.byte	0x11
	.uleb128 0xe
	.sleb128 1
	.align	2
.LEFDE14:
.LSFDE16:
	.4byte	.LEFDE16-.LASFDE16
.LASFDE16:
	.4byte	.Lframe0
	.4byte	.LFB41
	.4byte	.LFE41-.LFB41
	.byte	0x4
	.4byte	.LCFI12-.LFB41
	.byte	0xe
	.uleb128 0x8
	.byte	0x11
	.uleb128 0xe
	.sleb128 1
	.byte	0x11
	.uleb128 0x4
	.sleb128 2
	.align	2
.LEFDE16:
.LSFDE18:
	.4byte	.LEFDE18-.LASFDE18
.LASFDE18:
	.4byte	.Lframe0
	.4byte	.LFB42
	.4byte	.LFE42-.LFB42
	.byte	0x4
	.4byte	.LCFI13-.LFB42
	.byte	0xe
	.uleb128 0x4
	.byte	0x4
	.4byte	.LCFI14-.LCFI13
	.byte	0xe
	.uleb128 0x10
	.byte	0x11
	.uleb128 0xe
	.sleb128 1
	.align	2
.LEFDE18:
.LSFDE20:
	.4byte	.LEFDE20-.LASFDE20
.LASFDE20:
	.4byte	.Lframe0
	.4byte	.LFB43
	.4byte	.LFE43-.LFB43
	.byte	0x4
	.4byte	.LCFI15-.LFB43
	.byte	0xe
	.uleb128 0x4
	.byte	0x4
	.4byte	.LCFI16-.LCFI15
	.byte	0xe
	.uleb128 0x10
	.byte	0x11
	.uleb128 0xe
	.sleb128 1
	.align	2
.LEFDE20:
.LSFDE22:
	.4byte	.LEFDE22-.LASFDE22
.LASFDE22:
	.4byte	.Lframe0
	.4byte	.LFB44
	.4byte	.LFE44-.LFB44
	.byte	0x4
	.4byte	.LCFI17-.LFB44
	.byte	0xe
	.uleb128 0x8
	.byte	0x11
	.uleb128 0xe
	.sleb128 1
	.byte	0x11
	.uleb128 0x4
	.sleb128 2
	.align	2
.LEFDE22:
.LSFDE24:
	.4byte	.LEFDE24-.LASFDE24
.LASFDE24:
	.4byte	.Lframe0
	.4byte	.LFB45
	.4byte	.LFE45-.LFB45
	.byte	0x4
	.4byte	.LCFI18-.LFB45
	.byte	0xe
	.uleb128 0x8
	.byte	0x11
	.uleb128 0xe
	.sleb128 1
	.byte	0x11
	.uleb128 0x4
	.sleb128 2
	.align	2
.LEFDE24:
	.text
.Letext0:
	.section	.note.GNU-stack,"",%progbits
